Certificate:
    Data:
        Version: 3 (0x2)
        Serial Number: 4096 (0x1000)
        Signature Algorithm: ecdsa-with-SHA256
        Issuer: CN=MyInternalCA
        Validity
            Not Before: May  6 06:40:54 2025 GMT
            Not After : May  6 06:40:54 2026 GMT
        Subject: CN=10.0.2.148
        Subject Public Key Info:
            Public Key Algorithm: id-ecPublicKey
                Public-Key: (256 bit)
                pub:
                    04:e6:86:93:95:fd:e8:47:b4:dd:36:ef:a5:2b:68:
                    3c:55:53:c5:83:2f:48:02:f4:73:85:1b:28:f9:c1:
                    3e:e8:64:fe:40:f4:1d:7a:ce:9f:e5:70:fe:88:36:
                    37:3c:6c:bc:b2:40:32:68:61:e9:05:bf:a3:94:9a:
                    13:1f:22:fc:87
                ASN1 OID: prime256v1
                NIST CURVE: P-256
        X509v3 extensions:
            X509v3 Basic Constraints: 
                CA:FALSE
            X509v3 Key Usage: 
                Digital Signature, Non Repudiation, Key Encipherment
            X509v3 Subject Alternative Name: 
                IP Address:10.0.2.148
    Signature Algorithm: ecdsa-with-SHA256
         30:46:02:21:00:a4:61:f3:68:e0:7f:fb:fe:22:02:6c:23:03:
         84:e9:6e:b8:07:aa:5c:a8:e8:5f:cf:9b:9e:e2:a1:3a:16:d2:
         43:02:21:00:d1:6a:5e:dd:36:12:82:5d:eb:f5:c3:7d:bc:83:
         82:62:de:c6:9a:2b:8d:44:ad:10:18:d9:36:8a:35:36:cd:43
-----BEGIN CERTIFICATE-----
MIIBRzCB7aADAgECAgIQADAKBggqhkjOPQQDAjAXMRUwEwYDVQQDDAxNeUludGVy
bmFsQ0EwHhcNMjUwNTA2MDY0MDU0WhcNMjYwNTA2MDY0MDU0WjAVMRMwEQYDVQQD
DAoxMC4wLjIuMTQ4MFkwEwYHKoZIzj0CAQYIKoZIzj0DAQcDQgAE5oaTlf3oR7Td
Nu+lK2g8VVPFgy9IAvRzhRso+cE+6GT+QPQdes6f5XD+iDY3PGy8skAyaGHpBb+j
lJoTHyL8h6MrMCkwCQYDVR0TBAIwADALBgNVHQ8EBAMCBeAwDwYDVR0RBAgwBocE
CgAClDAKBggqhkjOPQQDAgNJADBGAiEApGHzaOB/+/4iAmwjA4TpbrgHqlyo6F/P
m57ioToW0kMCIQDRal7dNhKCXev1w328g4Ji3saaK41ErRAY2TaKNTbNQw==
-----END CERTIFICATE-----
