Certificate:
    Data:
        Version: 3 (0x2)
        Serial Number: 4097 (0x1001)
        Signature Algorithm: ecdsa-with-SHA256
        Issuer: CN=MyInternalCA
        Validity
            Not Before: May  6 06:43:09 2025 GMT
            Not After : May  6 06:43:09 2026 GMT
        Subject: CN=10.0.2.149
        Subject Public Key Info:
            Public Key Algorithm: id-ecPublicKey
                Public-Key: (256 bit)
                pub:
                    04:c7:13:f6:09:9b:94:f5:15:93:38:7b:b8:89:5f:
                    30:60:e7:1a:74:b7:b3:1e:81:aa:3e:6b:49:8f:66:
                    c9:f0:88:15:95:0e:c3:85:45:0a:fb:e7:0c:c3:69:
                    13:77:bc:e6:0d:47:2b:0f:56:87:48:e7:69:37:21:
                    e5:7c:e4:cd:72
                ASN1 OID: prime256v1
                NIST CURVE: P-256
        X509v3 extensions:
            X509v3 Basic Constraints: 
                CA:FALSE
            X509v3 Key Usage: 
                Digital Signature, Non Repudiation, Key Encipherment
            X509v3 Subject Alternative Name: 
                IP Address:10.0.2.149
    Signature Algorithm: ecdsa-with-SHA256
         30:45:02:20:46:d4:5d:34:57:09:70:20:ef:25:ee:de:08:39:
         fd:37:31:4d:36:ed:9f:07:c1:b8:a7:97:aa:d9:f0:c4:51:9a:
         02:21:00:c0:c7:c4:bd:ec:af:66:1b:9f:c6:a5:cf:54:bb:51:
         92:f8:bc:fd:40:14:d7:ae:04:dc:43:44:8d:d4:b9:72:9f
-----BEGIN CERTIFICATE-----
MIIBRjCB7aADAgECAgIQATAKBggqhkjOPQQDAjAXMRUwEwYDVQQDDAxNeUludGVy
bmFsQ0EwHhcNMjUwNTA2MDY0MzA5WhcNMjYwNTA2MDY0MzA5WjAVMRMwEQYDVQQD
DAoxMC4wLjIuMTQ5MFkwEwYHKoZIzj0CAQYIKoZIzj0DAQcDQgAExxP2CZuU9RWT
OHu4iV8wYOcadLezHoGqPmtJj2bJ8IgVlQ7DhUUK++cMw2kTd7zmDUcrD1aHSOdp
NyHlfOTNcqMrMCkwCQYDVR0TBAIwADALBgNVHQ8EBAMCBeAwDwYDVR0RBAgwBocE
CgAClTAKBggqhkjOPQQDAgNIADBFAiBG1F00VwlwIO8l7t4IOf03MU027Z8Hwbin
l6rZ8MRRmgIhAMDHxL3sr2Ybn8alz1S7UZL4vP1AFNeuBNxDRI3UuXKf
-----END CERTIFICATE-----
