Certificate:
    Data:
        Version: 3 (0x2)
        Serial Number: 4098 (0x1002)
        Signature Algorithm: ecdsa-with-SHA256
        Issuer: CN=MyInternalCA
        Validity
            Not Before: May  6 06:44:49 2025 GMT
            Not After : May  6 06:44:49 2026 GMT
        Subject: CN=10.0.2.147
        Subject Public Key Info:
            Public Key Algorithm: id-ecPublicKey
                Public-Key: (256 bit)
                pub:
                    04:7e:13:0d:7e:21:6f:2f:bb:0a:86:4c:85:af:5a:
                    ad:0e:9b:ac:96:0d:0b:72:90:dd:cf:42:82:e5:07:
                    88:b1:4e:2b:73:33:5c:99:e8:42:96:9e:f3:fe:8e:
                    81:50:8f:54:db:dd:9e:be:25:9c:46:bf:85:d9:35:
                    76:65:1d:88:cf
                ASN1 OID: prime256v1
                NIST CURVE: P-256
        X509v3 extensions:
            X509v3 Basic Constraints: 
                CA:FALSE
            X509v3 Key Usage: 
                Digital Signature, Non Repudiation, Key Encipherment
            X509v3 Subject Alternative Name: 
                IP Address:10.0.2.147
    Signature Algorithm: ecdsa-with-SHA256
         30:44:02:20:5b:f7:69:21:5b:1f:e1:81:0c:e3:bb:a4:0c:08:
         7b:73:61:30:80:5a:5b:e2:7f:fe:14:57:e7:f3:0c:1b:71:45:
         02:20:3c:97:f2:11:95:9b:b8:7b:19:ab:58:28:1e:ca:8f:14:
         81:aa:37:4e:76:0c:10:9f:33:75:26:3c:b8:dc:f3:71
-----BEGIN CERTIFICATE-----
MIIBRTCB7aADAgECAgIQAjAKBggqhkjOPQQDAjAXMRUwEwYDVQQDDAxNeUludGVy
bmFsQ0EwHhcNMjUwNTA2MDY0NDQ5WhcNMjYwNTA2MDY0NDQ5WjAVMRMwEQYDVQQD
DAoxMC4wLjIuMTQ3MFkwEwYHKoZIzj0CAQYIKoZIzj0DAQcDQgAEfhMNfiFvL7sK
hkyFr1qtDpuslg0LcpDdz0KC5QeIsU4rczNcmehClp7z/o6BUI9U292eviWcRr+F
2TV2ZR2Iz6MrMCkwCQYDVR0TBAIwADALBgNVHQ8EBAMCBeAwDwYDVR0RBAgwBocE
CgACkzAKBggqhkjOPQQDAgNHADBEAiBb92khWx/hgQzju6QMCHtzYTCAWlvif/4U
V+fzDBtxRQIgPJfyEZWbuHsZq1goHsqPFIGqN052DBCfM3UmPLjc83E=
-----END CERTIFICATE-----
